; Function Attrs: mustprogress uwtable
define internal void @_ZN11opencv_test12_GLOBAL__N_146gtest_RLMorphologyPerfTest_perf_EvalGenerator_Ev(ptr dead_on_unwind noalias writable sret(%"class.testing::internal::ParamGenerator") align 8 %0) #4 {
  %2 = alloca %"class.testing::internal::CartesianProductHolder3", align 4
  call void @llvm.lifetime.start.p0(i64 56, ptr nonnull %2) #27
  %.sroa.01.0.copyload = load i64, ptr @_ZN4perfL6sz720pE, align 8
  %.sroa.0.0.copyload = load i64, ptr @_ZN4perfL7sz2160pE, align 8
  store i32 1, ptr %2, align 4, !tbaa !34, !alias.scope !36
  %3 = getelementptr inbounds nuw i8, ptr %2, i64 4
  store i32 7, ptr %3, align 4, !tbaa !39, !alias.scope !36
  %4 = getelementptr inbounds nuw i8, ptr %2, i64 8
  store i32 21, ptr %4, align 4, !tbaa !40, !alias.scope !36
  %5 = getelementptr inbounds nuw i8, ptr %2, i64 12
  store i64 %.sroa.01.0.copyload, ptr %5, align 4, !alias.scope !36
  %6 = getelementptr inbounds nuw i8, ptr %2, i64 20
  store i64 %.sroa.0.0.copyload, ptr %6, align 4, !alias.scope !36
  %7 = getelementptr inbounds nuw i8, ptr %2, i64 28
  store i32 0, ptr %7, align 4, !tbaa !41, !alias.scope !36
  %8 = getelementptr inbounds nuw i8, ptr %2, i64 32
  store i32 1, ptr %8, align 4, !tbaa !44, !alias.scope !36
  %9 = getelementptr inbounds nuw i8, ptr %2, i64 36
  store i32 2, ptr %9, align 4, !tbaa !45, !alias.scope !36
  %10 = getelementptr inbounds nuw i8, ptr %2, i64 40
  store i32 3, ptr %10, align 4, !tbaa !46, !alias.scope !36
  %11 = getelementptr inbounds nuw i8, ptr %2, i64 44
  store i32 4, ptr %11, align 4, !tbaa !47, !alias.scope !36
  %12 = getelementptr inbounds nuw i8, ptr %2, i64 48
  store i32 5, ptr %12, align 4, !tbaa !48, !alias.scope !36
  %13 = getelementptr inbounds nuw i8, ptr %2, i64 52
  store i32 6, ptr %13, align 4, !tbaa !49, !alias.scope !36
  call void @_ZNK7testing8internal23CartesianProductHolder3INS0_11ValueArray3IiiiEENS0_11ValueArray2IN2cv5Size_IiEES7_EENS0_11ValueArray7INS5_10MorphTypesESA_SA_SA_SA_SA_SA_EEEcvNS0_14ParamGeneratorISt5tupleIJT_T0_T1_EEEEIiS7_iEEv(ptr dead_on_unwind writable sret(%"class.testing::internal::ParamGenerator") align 8 %0, ptr noundef nonnull align 4 dereferenceable(56) %2)
  call void @llvm.lifetime.end.p0(i64 56, ptr nonnull %2) #27
  ret void
}